target datalayout = "e-m:e-p270:32:32-p271:32:32-p272:64:64-i64:64-i128:128-f80:128-n8:16:32:64-S128"
target triple = "x86_64-pc-linux-gnu"

%class.Node = type <{ ptr, ptr, ptr, i32, i32, i32, i32, i32, i32, i32, [4 x i8] }>
%class.PhaseValues = type { %class.PhaseTransform, i8, ptr, ptr, [137 x ptr], [137 x ptr], [20 x ptr] }
%class.PhaseTransform = type { ptr, %class.Phase }
%class.Phase = type { i32, ptr }
%class.TypeInt = type { %class.TypeInteger.base, i32, i32 }
%class.TypeInteger.base = type { %class.Type.base, i16 }
%class.Type.base = type <{ ptr, ptr, i32 }>
%class.TypeLong = type { %class.TypeInteger.base, i64, i64 }
%class.Type = type <{ ptr, ptr, i32, [4 x i8] }>
%class.Type_Array = type { ptr, i32, ptr }

@_ZN4Type3TOPE = external global ptr, align 8
@_ZN7TypeInt3INTE = external global ptr, align 8
@_ZN8TypeLong4LONGE = external global ptr, align 8
@_ZN7TypeInt4ZEROE = external global ptr, align 8
@_ZN8TypeLong4ZEROE = external global ptr, align 8

; Function Attrs: mustprogress nounwind uwtable
define linkonce_odr hidden noundef ptr @_ZNK10Type_Array11fast_lookupEj(ptr noundef nonnull align 8 dereferenceable(24) %0, i32 noundef %1) #1 comdat align 2 {
  %3 = alloca ptr, align 8
  %4 = alloca i32, align 4
  store ptr %0, ptr %3, align 8
  store i32 %1, ptr %4, align 4
  %5 = load ptr, ptr %3, align 8
  %6 = getelementptr inbounds %class.Type_Array, ptr %5, i32 0, i32 2
  %7 = load ptr, ptr %6, align 8
  %8 = load i32, ptr %4, align 4
  %9 = zext i32 %8 to i64
  %10 = getelementptr inbounds ptr, ptr %7, i64 %9
  %11 = load ptr, ptr %10, align 8
  ret ptr %11
}

; Function Attrs: mustprogress nounwind uwtable
define linkonce_odr hidden noundef i64 @_ZNK8TypeLong7get_conEv(ptr noundef nonnull align 8 dereferenceable(40) %0) #1 comdat align 2 {
  %2 = alloca ptr, align 8
  store ptr %0, ptr %2, align 8
  %3 = load ptr, ptr %2, align 8
  %4 = getelementptr inbounds %class.TypeLong, ptr %3, i32 0, i32 1
  %5 = load i64, ptr %4, align 8
  ret i64 %5
}

; Function Attrs: mustprogress nounwind uwtable
define linkonce_odr hidden noundef zeroext i1 @_ZNK8TypeLong6is_conEv(ptr noundef nonnull align 8 dereferenceable(40) %0) #1 comdat align 2 {
  %2 = alloca ptr, align 8
  store ptr %0, ptr %2, align 8
  %3 = load ptr, ptr %2, align 8
  %4 = getelementptr inbounds %class.TypeLong, ptr %3, i32 0, i32 1
  %5 = load i64, ptr %4, align 8
  %6 = getelementptr inbounds %class.TypeLong, ptr %3, i32 0, i32 2
  %7 = load i64, ptr %6, align 8
  %8 = icmp eq i64 %5, %7
  ret i1 %8
}

; Function Attrs: mustprogress nounwind uwtable
define linkonce_odr hidden noundef ptr @_ZNK4Type7is_longEv(ptr noundef nonnull align 8 dereferenceable(20) %0) #1 comdat align 2 {
  %2 = alloca ptr, align 8
  store ptr %0, ptr %2, align 8
  %3 = load ptr, ptr %2, align 8
  ret ptr %3
}

; Function Attrs: mustprogress nounwind uwtable
define linkonce_odr hidden noundef i32 @_ZNK7TypeInt7get_conEv(ptr noundef nonnull align 8 dereferenceable(32) %0) #1 comdat align 2 {
  %2 = alloca ptr, align 8
  store ptr %0, ptr %2, align 8
  %3 = load ptr, ptr %2, align 8
  %4 = getelementptr inbounds %class.TypeInt, ptr %3, i32 0, i32 1
  %5 = load i32, ptr %4, align 8
  ret i32 %5
}

; Function Attrs: mustprogress nounwind uwtable
define linkonce_odr hidden noundef zeroext i1 @_ZNK7TypeInt6is_conEv(ptr noundef nonnull align 8 dereferenceable(32) %0) #1 comdat align 2 {
  %2 = alloca ptr, align 8
  store ptr %0, ptr %2, align 8
  %3 = load ptr, ptr %2, align 8
  %4 = getelementptr inbounds %class.TypeInt, ptr %3, i32 0, i32 1
  %5 = load i32, ptr %4, align 8
  %6 = getelementptr inbounds %class.TypeInt, ptr %3, i32 0, i32 2
  %7 = load i32, ptr %6, align 4
  %8 = icmp eq i32 %5, %7
  ret i1 %8
}

; Function Attrs: mustprogress nounwind uwtable
define linkonce_odr hidden noundef ptr @_ZNK4Type6is_intEv(ptr noundef nonnull align 8 dereferenceable(20) %0) #1 comdat align 2 {
  %2 = alloca ptr, align 8
  store ptr %0, ptr %2, align 8
  %3 = load ptr, ptr %2, align 8
  ret ptr %3
}

; Function Attrs: mustprogress nounwind uwtable
define linkonce_odr hidden noundef ptr @_ZNK4Type7isa_intEv(ptr noundef nonnull align 8 dereferenceable(20) %0) #1 comdat align 2 {
  %2 = alloca ptr, align 8
  store ptr %0, ptr %2, align 8
  %3 = load ptr, ptr %2, align 8
  %4 = getelementptr inbounds %class.Type, ptr %3, i32 0, i32 2
  %5 = load i32, ptr %4, align 8
  %6 = icmp eq i32 %5, 3
  br i1 %6, label %7, label %8

7:                                                ; preds = %1
  br label %9

8:                                                ; preds = %1
  br label %9

9:                                                ; preds = %8, %7
  %10 = phi ptr [ %3, %7 ], [ null, %8 ]
  ret ptr %10
}

; Function Attrs: mustprogress nounwind uwtable
define linkonce_odr hidden noundef ptr @_ZNK11PhaseValues4typeEPK4Node(ptr noundef nonnull align 8 dereferenceable(2400) %0, ptr noundef %1) #1 comdat align 2 {
  %3 = alloca ptr, align 8
  %4 = alloca ptr, align 8
  %5 = alloca ptr, align 8
  store ptr %0, ptr %3, align 8
  store ptr %1, ptr %4, align 8
  %6 = load ptr, ptr %3, align 8
  %7 = getelementptr inbounds %class.PhaseValues, ptr %6, i32 0, i32 3
  %8 = load ptr, ptr %7, align 8
  %9 = load ptr, ptr %4, align 8
  %10 = getelementptr inbounds %class.Node, ptr %9, i32 0, i32 7
  %11 = load i32, ptr %10, align 8
  %12 = call noundef ptr @_ZNK10Type_Array11fast_lookupEj(ptr noundef nonnull align 8 dereferenceable(24) %8, i32 noundef %11)
  store ptr %12, ptr %5, align 8
  %13 = load ptr, ptr %5, align 8
  ret ptr %13
}

; Function Attrs: mustprogress nounwind uwtable
define linkonce_odr hidden noundef ptr @_ZNK4Node2inEj(ptr noundef nonnull align 8 dereferenceable(52) %0, i32 noundef %1) #1 comdat align 2 {
  %3 = alloca ptr, align 8
  %4 = alloca i32, align 4
  store ptr %0, ptr %3, align 8
  store i32 %1, ptr %4, align 4
  %5 = load ptr, ptr %3, align 8
  %6 = getelementptr inbounds %class.Node, ptr %5, i32 0, i32 1
  %7 = load ptr, ptr %6, align 8
  %8 = load i32, ptr %4, align 4
  %9 = zext i32 %8 to i64
  %10 = getelementptr inbounds ptr, ptr %7, i64 %9
  %11 = load ptr, ptr %10, align 8
  ret ptr %11
}

; Function Attrs: mustprogress nounwind uwtable
define hidden noundef ptr @_ZNK15RotateRightNode5ValueEP8PhaseGVN(ptr noundef nonnull align 8 dereferenceable(64) %0, ptr noundef %1) unnamed_addr #1 align 2 {
  %3 = alloca ptr, align 8
  %4 = alloca ptr, align 8
  %5 = alloca ptr, align 8
  %6 = alloca ptr, align 8
  %7 = alloca ptr, align 8
  %8 = alloca ptr, align 8
  %9 = alloca ptr, align 8
  %10 = alloca i32, align 4
  %11 = alloca i32, align 4
  %12 = alloca ptr, align 8
  %13 = alloca ptr, align 8
  %14 = alloca i64, align 8
  %15 = alloca i64, align 8
  store ptr %0, ptr %4, align 8
  store ptr %1, ptr %5, align 8
  %16 = load ptr, ptr %4, align 8
  %17 = load ptr, ptr %5, align 8
  %18 = call noundef ptr @_ZNK4Node2inEj(ptr noundef nonnull align 8 dereferenceable(52) %16, i32 noundef 1)
  %19 = call noundef ptr @_ZNK11PhaseValues4typeEPK4Node(ptr noundef nonnull align 8 dereferenceable(2400) %17, ptr noundef %18)
  store ptr %19, ptr %6, align 8
  %20 = load ptr, ptr %5, align 8
  %21 = call noundef ptr @_ZNK4Node2inEj(ptr noundef nonnull align 8 dereferenceable(52) %16, i32 noundef 2)
  %22 = call noundef ptr @_ZNK11PhaseValues4typeEPK4Node(ptr noundef nonnull align 8 dereferenceable(2400) %20, ptr noundef %21)
  store ptr %22, ptr %7, align 8
  %23 = load ptr, ptr %6, align 8
  %24 = load ptr, ptr @_ZN4Type3TOPE, align 8
  %25 = icmp eq ptr %23, %24
  br i1 %25, label %30, label %26

26:                                               ; preds = %2
  %27 = load ptr, ptr %7, align 8
  %28 = load ptr, ptr @_ZN4Type3TOPE, align 8
  %29 = icmp eq ptr %27, %28
  br i1 %29, label %30, label %32

30:                                               ; preds = %26, %2
  %31 = load ptr, ptr @_ZN4Type3TOPE, align 8
  store ptr %31, ptr %3, align 8
  br label %115

32:                                               ; preds = %26
  %33 = load ptr, ptr %6, align 8
  %34 = call noundef ptr @_ZNK4Type7isa_intEv(ptr noundef nonnull align 8 dereferenceable(20) %33)
  %35 = icmp ne ptr %34, null
  br i1 %35, label %36, label %75

36:                                               ; preds = %32
  %37 = load ptr, ptr %6, align 8
  %38 = call noundef ptr @_ZNK4Type6is_intEv(ptr noundef nonnull align 8 dereferenceable(20) %37)
  store ptr %38, ptr %8, align 8
  %39 = load ptr, ptr %7, align 8
  %40 = call noundef ptr @_ZNK4Type6is_intEv(ptr noundef nonnull align 8 dereferenceable(20) %39)
  store ptr %40, ptr %9, align 8
  %41 = load ptr, ptr %8, align 8
  %42 = load ptr, ptr @_ZN7TypeInt4ZEROE, align 8
  %43 = icmp eq ptr %41, %42
  br i1 %43, label %44, label %46

44:                                               ; preds = %36
  %45 = load ptr, ptr @_ZN7TypeInt4ZEROE, align 8
  store ptr %45, ptr %3, align 8
  br label %115

46:                                               ; preds = %36
  %47 = load ptr, ptr %9, align 8
  %48 = load ptr, ptr @_ZN7TypeInt4ZEROE, align 8
  %49 = icmp eq ptr %47, %48
  br i1 %49, label %50, label %52

50:                                               ; preds = %46
  %51 = load ptr, ptr %8, align 8
  store ptr %51, ptr %3, align 8
  br label %115

52:                                               ; preds = %46
  %53 = load ptr, ptr %8, align 8
  %54 = call noundef zeroext i1 @_ZNK7TypeInt6is_conEv(ptr noundef nonnull align 8 dereferenceable(32) %53)
  br i1 %54, label %55, label %73

55:                                               ; preds = %52
  %56 = load ptr, ptr %9, align 8
  %57 = call noundef zeroext i1 @_ZNK7TypeInt6is_conEv(ptr noundef nonnull align 8 dereferenceable(32) %56)
  br i1 %57, label %58, label %73

58:                                               ; preds = %55
  %59 = load ptr, ptr %8, align 8
  %60 = call noundef i32 @_ZNK7TypeInt7get_conEv(ptr noundef nonnull align 8 dereferenceable(32) %59)
  store i32 %60, ptr %10, align 4
  %61 = load ptr, ptr %9, align 8
  %62 = call noundef i32 @_ZNK7TypeInt7get_conEv(ptr noundef nonnull align 8 dereferenceable(32) %61)
  %63 = and i32 %62, 31
  store i32 %63, ptr %11, align 4
  %64 = load i32, ptr %10, align 4
  %65 = load i32, ptr %11, align 4
  %66 = lshr i32 %64, %65
  %67 = load i32, ptr %10, align 4
  %68 = load i32, ptr %11, align 4
  %69 = sub i32 32, %68
  %70 = shl i32 %67, %69
  %71 = or i32 %66, %70
  %72 = call noundef ptr @_ZN7TypeInt4makeEi(i32 noundef %71)
  store ptr %72, ptr %3, align 8
  br label %115

73:                                               ; preds = %55, %52
  %74 = load ptr, ptr @_ZN7TypeInt3INTE, align 8
  store ptr %74, ptr %3, align 8
  br label %115

75:                                               ; preds = %32
  %76 = load ptr, ptr %6, align 8
  %77 = call noundef ptr @_ZNK4Type7is_longEv(ptr noundef nonnull align 8 dereferenceable(20) %76)
  store ptr %77, ptr %12, align 8
  %78 = load ptr, ptr %7, align 8
  %79 = call noundef ptr @_ZNK4Type6is_intEv(ptr noundef nonnull align 8 dereferenceable(20) %78)
  store ptr %79, ptr %13, align 8
  %80 = load ptr, ptr %12, align 8
  %81 = load ptr, ptr @_ZN8TypeLong4ZEROE, align 8
  %82 = icmp eq ptr %80, %81
  br i1 %82, label %83, label %85

83:                                               ; preds = %75
  %84 = load ptr, ptr @_ZN8TypeLong4ZEROE, align 8
  store ptr %84, ptr %3, align 8
  br label %115

85:                                               ; preds = %75
  %86 = load ptr, ptr %13, align 8
  %87 = load ptr, ptr @_ZN7TypeInt4ZEROE, align 8
  %88 = icmp eq ptr %86, %87
  br i1 %88, label %89, label %91

89:                                               ; preds = %85
  %90 = load ptr, ptr %12, align 8
  store ptr %90, ptr %3, align 8
  br label %115

91:                                               ; preds = %85
  %92 = load ptr, ptr %12, align 8
  %93 = call noundef zeroext i1 @_ZNK8TypeLong6is_conEv(ptr noundef nonnull align 8 dereferenceable(40) %92)
  br i1 %93, label %94, label %113

94:                                               ; preds = %91
  %95 = load ptr, ptr %13, align 8
  %96 = call noundef zeroext i1 @_ZNK7TypeInt6is_conEv(ptr noundef nonnull align 8 dereferenceable(32) %95)
  br i1 %96, label %97, label %113

97:                                               ; preds = %94
  %98 = load ptr, ptr %12, align 8
  %99 = call noundef i64 @_ZNK8TypeLong7get_conEv(ptr noundef nonnull align 8 dereferenceable(40) %98)
  store i64 %99, ptr %14, align 8
  %100 = load ptr, ptr %13, align 8
  %101 = call noundef i32 @_ZNK7TypeInt7get_conEv(ptr noundef nonnull align 8 dereferenceable(32) %100)
  %102 = sext i32 %101 to i64
  %103 = and i64 %102, 63
  store i64 %103, ptr %15, align 8
  %104 = load i64, ptr %14, align 8
  %105 = load i64, ptr %15, align 8
  %106 = lshr i64 %104, %105
  %107 = load i64, ptr %14, align 8
  %108 = load i64, ptr %15, align 8
  %109 = sub i64 64, %108
  %110 = shl i64 %107, %109
  %111 = or i64 %106, %110
  %112 = call noundef ptr @_ZN8TypeLong4makeEl(i64 noundef %111)
  store ptr %112, ptr %3, align 8
  br label %115

113:                                              ; preds = %94, %91
  %114 = load ptr, ptr @_ZN8TypeLong4LONGE, align 8
  store ptr %114, ptr %3, align 8
  br label %115

115:                                              ; preds = %113, %97, %89, %83, %73, %58, %50, %44, %30
  %116 = load ptr, ptr %3, align 8
  ret ptr %116
}